target datalayout = "e-m:e-p270:32:32-p271:32:32-p272:64:64-i64:64-i128:128-f80:128-n8:16:32:64-S128"
target triple = "x86_64-pc-linux-gnu"

; Function Attrs: mustprogress uwtable
define linkonce_odr void @_ZN7QWidget8setFocusEv(ptr noundef nonnull align 8 dereferenceable(40) %0) #0 comdat align 2 {
  %2 = alloca ptr, align 8
  store ptr %0, ptr %2, align 8
  %3 = load ptr, ptr %2, align 8
  call void @_ZN7QWidget8setFocusEN2Qt11FocusReasonE(ptr noundef nonnull align 8 dereferenceable(40) %3, i32 noundef 7)
  ret void
}

; Function Attrs: mustprogress uwtable
define void @_ZN17CaptureFileDialog6acceptEv(ptr noundef nonnull align 8 dereferenceable(572) %0) unnamed_addr #0 align 2 {
  %2 = alloca ptr, align 8
  store ptr %0, ptr %2, align 8
  %3 = load ptr, ptr %2, align 8
  %4 = call noundef i32 @_ZNK11QFileDialog10acceptModeEv(ptr noundef nonnull align 8 dereferenceable(40) %3)
  %5 = icmp eq i32 %4, 1
  br i1 %5, label %6, label %7

6:                                                ; preds = %1
  call void @_ZN7QWidget8setFocusEv(ptr noundef nonnull align 8 dereferenceable(40) %3)
  call void @_ZN17CaptureFileDialog20fixFilenameExtensionEv(ptr noundef nonnull align 8 dereferenceable(572) %3)
  br label %7

7:                                                ; preds = %6, %1
  call void @_ZN11QFileDialog6acceptEv(ptr noundef nonnull align 8 dereferenceable(40) %3)
  ret void
}