; Function Attrs: mustprogress uwtable
define void @_ZN17CaptureFileDialog6acceptEv(ptr noundef nonnull align 8 dereferenceable(572) %0) unnamed_addr #0 align 2 {
  %2 = tail call noundef i32 @_ZNK11QFileDialog10acceptModeEv(ptr noundef nonnull align 8 dereferenceable(40) %0)
  %3 = icmp eq i32 %2, 1
  br i1 %3, label %4, label %5

4:                                                ; preds = %1
  tail call void @_ZN7QWidget8setFocusEN2Qt11FocusReasonE(ptr noundef nonnull align 8 dereferenceable(40) %0, i32 noundef 7)
  tail call void @_ZN17CaptureFileDialog20fixFilenameExtensionEv(ptr noundef nonnull align 8 dereferenceable(572) %0)
  br label %5

5:                                                ; preds = %4, %1
  tail call void @_ZN11QFileDialog6acceptEv(ptr noundef nonnull align 8 dereferenceable(40) %0)
  ret void
}